; ModuleID = 'source-C-CXX/48/187.c'
source_filename = "source-C-CXX/48/187.c"
target datalayout = "e-m:e-p270:32:32-p271:32:32-p272:64:64-i64:64-f80:128-n8:16:32:64-S128"
target triple = "x86_64-pc-linux-gnu"

%struct._IO_FILE = type { i32, i8*, i8*, i8*, i8*, i8*, i8*, i8*, i8*, i8*, i8*, i8*, %struct._IO_marker*, %struct._IO_FILE*, i32, i32, i64, i16, i8, [1 x i8], i8*, i64, %struct._IO_codecvt*, %struct._IO_wide_data*, %struct._IO_FILE*, i8*, i64, i32, [20 x i8] }
%struct._IO_marker = type opaque
%struct._IO_codecvt = type opaque
%struct._IO_wide_data = type opaque

@stdout = external local_unnamed_addr global %struct._IO_FILE*, align 8

; Function Attrs: nounwind sspstrong uwtable
define dso_local i32 @main() local_unnamed_addr #0 {
  %1 = alloca [500 x i8], align 16
  %2 = getelementptr inbounds [500 x i8], [500 x i8]* %1, i64 0, i64 0
  call void @llvm.lifetime.start.p0i8(i64 500, i8* nonnull %2) #5
  %3 = call i32 (i8*, ...) bitcast (i32 (...)* @gets to i32 (i8*, ...)*)(i8* nonnull %2) #5
  %4 = call i64 @strlen(i8* noundef nonnull %2) #6
  %5 = trunc i64 %4 to i32
  %6 = icmp slt i32 %5, 2
  br i1 %6, label %57, label %7

7:                                                ; preds = %0
  %8 = add i64 %4, 1
  %9 = and i64 %8, 4294967295
  br label %10

10:                                               ; preds = %7, %54
  %11 = phi i64 [ 2, %7 ], [ %55, %54 ]
  %12 = phi i32 [ %5, %7 ], [ %13, %54 ]
  %13 = add i32 %12, -1
  %14 = trunc i64 %11 to i32
  %15 = icmp slt i32 %5, %14
  br i1 %15, label %54, label %16

16:                                               ; preds = %10
  %17 = zext i32 %13 to i64
  br label %18

18:                                               ; preds = %16, %51
  %19 = phi i64 [ 0, %16 ], [ %52, %51 ]
  %20 = add nuw nsw i64 %19, %11
  br label %21

21:                                               ; preds = %18, %31
  %22 = phi i64 [ 0, %18 ], [ %32, %31 ]
  %23 = add nuw nsw i64 %22, %19
  %24 = getelementptr inbounds [500 x i8], [500 x i8]* %1, i64 0, i64 %23
  %25 = load i8, i8* %24, align 1, !tbaa !5
  %26 = xor i64 %22, -1
  %27 = add nsw i64 %20, %26
  %28 = getelementptr inbounds [500 x i8], [500 x i8]* %1, i64 0, i64 %27
  %29 = load i8, i8* %28, align 1, !tbaa !5
  %30 = icmp eq i8 %25, %29
  br i1 %30, label %31, label %34

31:                                               ; preds = %21
  %32 = add nuw nsw i64 %22, 1
  %33 = icmp eq i64 %32, %11
  br i1 %33, label %34, label %21, !llvm.loop !8

34:                                               ; preds = %21, %31
  %35 = phi i64 [ %22, %21 ], [ %11, %31 ]
  %36 = and i64 %35, 4294967295
  %37 = icmp eq i64 %36, %11
  br i1 %37, label %38, label %51

38:                                               ; preds = %34, %38
  %39 = phi i64 [ %46, %38 ], [ 0, %34 ]
  %40 = add nuw nsw i64 %39, %19
  %41 = getelementptr inbounds [500 x i8], [500 x i8]* %1, i64 0, i64 %40
  %42 = load i8, i8* %41, align 1, !tbaa !5
  %43 = sext i8 %42 to i32
  %44 = load %struct._IO_FILE*, %struct._IO_FILE** @stdout, align 8, !tbaa !10
  %45 = call i32 @putc(i32 %43, %struct._IO_FILE* %44) #5
  %46 = add nuw nsw i64 %39, 1
  %47 = icmp eq i64 %46, %11
  br i1 %47, label %48, label %38, !llvm.loop !12

48:                                               ; preds = %38
  %49 = load %struct._IO_FILE*, %struct._IO_FILE** @stdout, align 8, !tbaa !10
  %50 = call i32 @putc(i32 10, %struct._IO_FILE* %49) #5
  br label %51

51:                                               ; preds = %34, %48
  %52 = add nuw nsw i64 %19, 1
  %53 = icmp eq i64 %52, %17
  br i1 %53, label %54, label %18, !llvm.loop !13

54:                                               ; preds = %51, %10
  %55 = add nuw nsw i64 %11, 1
  %56 = icmp eq i64 %55, %9
  br i1 %56, label %57, label %10, !llvm.loop !14

57:                                               ; preds = %54, %0
  call void @llvm.lifetime.end.p0i8(i64 500, i8* nonnull %2) #5
  ret i32 0
}

; Function Attrs: argmemonly mustprogress nofree nosync nounwind willreturn
declare void @llvm.lifetime.start.p0i8(i64 immarg, i8* nocapture) #1

declare i32 @gets(...) local_unnamed_addr #2

; Function Attrs: argmemonly mustprogress nofree nounwind readonly willreturn
declare i64 @strlen(i8* nocapture) local_unnamed_addr #3

; Function Attrs: argmemonly mustprogress nofree nosync nounwind willreturn
declare void @llvm.lifetime.end.p0i8(i64 immarg, i8* nocapture) #1

; Function Attrs: nofree nounwind
declare noundef i32 @putc(i32 noundef, %struct._IO_FILE* nocapture noundef) local_unnamed_addr #4


!llvm.module.flags = !{!0, !1, !2, !3}
!llvm.ident = !{!4}

!0 = !{i32 1, !"wchar_size", i32 4}
!1 = !{i32 7, !"PIC Level", i32 2}
!2 = !{i32 7, !"PIE Level", i32 2}
!3 = !{i32 7, !"uwtable", i32 1}
!4 = !{!"clang version 13.0.0"}
!5 = !{!6, !6, i64 0}
!6 = !{!"omnipotent char", !7, i64 0}
!7 = !{!"Simple C/C++ TBAA"}
!8 = distinct !{!8, !9}
!9 = !{!"llvm.loop.mustprogress"}
!10 = !{!11, !11, i64 0}
!11 = !{!"any pointer", !6, i64 0}
!12 = distinct !{!12, !9}
!13 = distinct !{!13, !9}
!14 = distinct !{!14, !9}
